; Function Attrs: mustprogress nounwind uwtable
define void @_ZN16mip_or_mie_csr_t15write_with_maskEmm(ptr noundef nonnull align 8 dereferenceable(48) %0, i64 noundef %1, i64 noundef %2) local_unnamed_addr #7 align 2 personality ptr @__gxx_personality_v0 {
  %4 = alloca i64, align 8
  %5 = getelementptr inbounds nuw i8, ptr %0, i64 40
  %6 = load i64, ptr %5, align 8, !tbaa !210
  %7 = xor i64 %1, -1
  %8 = and i64 %6, %7
  %9 = and i64 %2, %1
  %10 = or disjoint i64 %8, %9
  store i64 %10, ptr %5, align 8, !tbaa !210
  %11 = getelementptr inbounds nuw i8, ptr %0, i64 24
  %12 = load i64, ptr %11, align 8, !tbaa !16
  %13 = load ptr, ptr %0, align 8, !tbaa !3
  %14 = getelementptr inbounds nuw i8, ptr %13, i64 40
  %15 = load ptr, ptr %14, align 8
  %16 = tail call noundef i64 %15(ptr noundef nonnull align 8 dereferenceable(37) %0) #30
  %17 = getelementptr inbounds nuw i8, ptr %0, i64 8
  %18 = load ptr, ptr %17, align 8, !tbaa !6
  %19 = getelementptr inbounds nuw i8, ptr %18, i64 3969
  %20 = load i8, ptr %19, align 1, !tbaa !102, !range !94, !noundef !95
  %21 = trunc nuw i8 %20 to i1
  br i1 %21, label %22, label %_ZNK5csr_t9log_writeEv.exit

22:                                               ; preds = %3
  %23 = getelementptr inbounds nuw i8, ptr %18, i64 3840
  call void @llvm.lifetime.start.p0(i64 8, ptr nonnull %4) #30
  %24 = shl i64 %12, 4
  %25 = or disjoint i64 %24, 4
  store i64 %25, ptr %4, align 8, !tbaa !96
  %26 = invoke noundef nonnull align 8 dereferenceable(16) ptr @_ZNSt3mapIm10float128_tSt4lessImESaISt4pairIKmS0_EEEixEOm(ptr noundef nonnull align 8 dereferenceable(48) %23, ptr noundef nonnull align 8 dereferenceable(8) %4)
          to label %27 unwind label %28

27:                                               ; preds = %22
  store i64 %16, ptr %26, align 8
  %.sroa.4.0..sroa_idx.i.i = getelementptr inbounds nuw i8, ptr %26, i64 8
  store i64 0, ptr %.sroa.4.0..sroa_idx.i.i, align 8, !tbaa !150
  call void @llvm.lifetime.end.p0(i64 8, ptr nonnull %4) #30
  br label %_ZNK5csr_t9log_writeEv.exit

28:                                               ; preds = %22
  %29 = landingpad { ptr, i32 }
          catch ptr null
  %30 = extractvalue { ptr, i32 } %29, 0
  call void @__clang_call_terminate(ptr %30) #32
  unreachable

_ZNK5csr_t9log_writeEv.exit:                      ; preds = %3, %27
  ret void
}